; Function Attrs: nounwind uwtable
define void @lv_fragment_manager_push(ptr noundef %0, ptr noundef %1, ptr noundef %2) local_unnamed_addr #0 {
  %4 = getelementptr inbounds nuw i8, ptr %0, i64 32
  %5 = tail call ptr @lv_ll_get_tail(ptr noundef nonnull %4) #3
  %.not = icmp eq ptr %5, null
  br i1 %.not, label %9, label %6

6:                                                ; preds = %3
  %7 = load ptr, ptr %5, align 8, !tbaa !24
  %8 = getelementptr i8, ptr %7, i64 24
  %.val = load ptr, ptr %8, align 8, !tbaa !10
  tail call void @lv_fragment_delete_obj(ptr noundef %.val) #3
  br label %9

9:                                                ; preds = %6, %3
  %.not.i = icmp eq ptr %0, null
  br i1 %.not.i, label %.preheader.i, label %10

.preheader.i:                                     ; preds = %9, %.preheader.i
  br label %.preheader.i

10:                                               ; preds = %9
  %.not21.i = icmp eq ptr %1, null
  br i1 %.not21.i, label %.preheader23.i, label %11

.preheader23.i:                                   ; preds = %10, %.preheader23.i
  br label %.preheader23.i

11:                                               ; preds = %10
  %12 = getelementptr inbounds nuw i8, ptr %1, i64 8
  %13 = load ptr, ptr %12, align 8, !tbaa !18
  %14 = icmp eq ptr %13, null
  br i1 %14, label %15, label %.preheader24.i

.preheader24.i:                                   ; preds = %11, %.preheader24.i
  br label %.preheader24.i

15:                                               ; preds = %11
  %16 = getelementptr inbounds nuw i8, ptr %0, i64 8
  %17 = tail call ptr @lv_ll_ins_tail(ptr noundef nonnull %16) #3
  tail call void @lv_memset(ptr noundef %17, i8 noundef zeroext 0, i64 noundef 40) #3
  %18 = load ptr, ptr %1, align 8, !tbaa !13
  store ptr %18, ptr %17, align 8, !tbaa !30
  %19 = getelementptr inbounds nuw i8, ptr %17, i64 8
  store ptr %0, ptr %19, align 8, !tbaa !31
  %20 = getelementptr inbounds nuw i8, ptr %17, i64 16
  store ptr %2, ptr %20, align 8, !tbaa !26
  %21 = getelementptr inbounds nuw i8, ptr %17, i64 24
  store ptr %1, ptr %21, align 8, !tbaa !10
  store ptr %17, ptr %12, align 8, !tbaa !18
  %22 = getelementptr inbounds nuw i8, ptr %18, i64 16
  %23 = load ptr, ptr %22, align 8, !tbaa !32
  %.not22.i = icmp eq ptr %23, null
  br i1 %.not22.i, label %fragment_attach.exit, label %24

24:                                               ; preds = %15
  tail call void %23(ptr noundef nonnull %1) #3
  br label %fragment_attach.exit

fragment_attach.exit:                             ; preds = %15, %24
  %25 = getelementptr inbounds nuw i8, ptr %17, i64 34
  store i8 1, ptr %25, align 2, !tbaa !21
  %26 = tail call ptr @lv_ll_ins_tail(ptr noundef nonnull %4) #3
  tail call void @lv_memset(ptr noundef %26, i8 noundef zeroext 0, i64 noundef 8) #3
  store ptr %17, ptr %26, align 8, !tbaa !24
  %27 = load ptr, ptr %21, align 8, !tbaa !10
  %.not.i12 = icmp eq ptr %27, null
  br i1 %.not.i12, label %.preheader.i13, label %28

.preheader.i13:                                   ; preds = %fragment_attach.exit, %.preheader.i13
  br label %.preheader.i13

28:                                               ; preds = %fragment_attach.exit
  %29 = load ptr, ptr %20, align 8, !tbaa !26
  %.not5.i = icmp eq ptr %29, null
  br i1 %.not5.i, label %item_create_obj.exit, label %30

30:                                               ; preds = %28
  %31 = load ptr, ptr %29, align 8, !tbaa !27
  br label %item_create_obj.exit

item_create_obj.exit:                             ; preds = %28, %30
  %32 = phi ptr [ %31, %30 ], [ null, %28 ]
  %33 = tail call ptr @lv_fragment_create_obj(ptr noundef nonnull %27, ptr noundef %32) #3
  ret void
}